target datalayout = "e-m:e-p270:32:32-p271:32:32-p272:64:64-i64:64-i128:128-f80:128-n8:16:32:64-S128"
target triple = "x86_64-pc-linux-gnu"

%"class.cvc5::internal::NodeTemplate" = type { ptr }
%"class.cvc5::internal::decision::JustifyStack" = type { ptr, %"class.cvc5::context::CDO", %"class.cvc5::context::CDList", %"class.cvc5::context::CDO.0" }
%"class.cvc5::context::CDO" = type { %"class.cvc5::context::ContextObj", %"class.cvc5::internal::NodeTemplate" }
%"class.cvc5::context::ContextObj" = type { ptr, ptr, ptr, ptr, ptr }
%"class.cvc5::context::CDList" = type <{ %"class.cvc5::context::ContextObj", %"class.std::vector", i64, i8, [7 x i8] }>
%"class.std::vector" = type { %"struct.std::_Vector_base" }
%"struct.std::_Vector_base" = type { %"struct.std::_Vector_base<std::shared_ptr<cvc5::internal::decision::JustifyInfo>, std::allocator<std::shared_ptr<cvc5::internal::decision::JustifyInfo>>>::_Vector_impl" }
%"struct.std::_Vector_base<std::shared_ptr<cvc5::internal::decision::JustifyInfo>, std::allocator<std::shared_ptr<cvc5::internal::decision::JustifyInfo>>>::_Vector_impl" = type { %"struct.std::_Vector_base<std::shared_ptr<cvc5::internal::decision::JustifyInfo>, std::allocator<std::shared_ptr<cvc5::internal::decision::JustifyInfo>>>::_Vector_impl_data" }
%"struct.std::_Vector_base<std::shared_ptr<cvc5::internal::decision::JustifyInfo>, std::allocator<std::shared_ptr<cvc5::internal::decision::JustifyInfo>>>::_Vector_impl_data" = type { ptr, ptr, ptr }
%"class.cvc5::context::CDO.0" = type { %"class.cvc5::context::ContextObj", i64 }
%"class.std::__shared_ptr" = type { ptr, %"class.std::__shared_count" }
%"class.std::__shared_count" = type { ptr }
%"class.std::shared_ptr" = type { %"class.std::__shared_ptr" }

; Function Attrs: mustprogress nounwind uwtable
define linkonce_odr hidden noundef nonnull align 8 dereferenceable(16) ptr @_ZNKSt6vectorISt10shared_ptrIN4cvc58internal8decision11JustifyInfoEESaIS5_EEixEm(ptr noundef nonnull align 8 dereferenceable(24) %0, i64 noundef %1) #4 comdat align 2 {
  %3 = alloca ptr, align 8
  %4 = alloca i64, align 8
  store ptr %0, ptr %3, align 8, !tbaa !185
  store i64 %1, ptr %4, align 8, !tbaa !8
  %5 = load ptr, ptr %3, align 8
  %6 = getelementptr inbounds nuw %"struct.std::_Vector_base", ptr %5, i32 0, i32 0
  %7 = getelementptr inbounds nuw %"struct.std::_Vector_base<std::shared_ptr<cvc5::internal::decision::JustifyInfo>, std::allocator<std::shared_ptr<cvc5::internal::decision::JustifyInfo>>>::_Vector_impl_data", ptr %6, i32 0, i32 0
  %8 = load ptr, ptr %7, align 8, !tbaa !195
  %9 = load i64, ptr %4, align 8, !tbaa !8
  %10 = getelementptr inbounds nuw %"class.std::shared_ptr", ptr %8, i64 %9
  ret ptr %10
}

; Function Attrs: mustprogress nounwind uwtable
define linkonce_odr hidden noundef ptr @_ZNKSt12__shared_ptrIN4cvc58internal8decision11JustifyInfoELN9__gnu_cxx12_Lock_policyE2EE3getEv(ptr noundef nonnull align 8 dereferenceable(16) %0) #4 comdat align 2 {
  %2 = alloca ptr, align 8
  store ptr %0, ptr %2, align 8, !tbaa !65
  %3 = load ptr, ptr %2, align 8
  %4 = getelementptr inbounds nuw %"class.std::__shared_ptr", ptr %3, i32 0, i32 0
  %5 = load ptr, ptr %4, align 8, !tbaa !67
  ret ptr %5
}

; Function Attrs: mustprogress nounwind uwtable
define linkonce_odr hidden noundef nonnull align 8 dereferenceable(16) ptr @_ZNK4cvc57context6CDListISt10shared_ptrINS_8internal8decision11JustifyInfoEENS0_14DefaultCleanUpIS6_EESaIS6_EEixEm(ptr noundef nonnull align 8 dereferenceable(74) %0, i64 noundef %1) #4 comdat align 2 {
  %3 = alloca ptr, align 8
  %4 = alloca i64, align 8
  store ptr %0, ptr %3, align 8, !tbaa !41
  store i64 %1, ptr %4, align 8, !tbaa !8
  %5 = load ptr, ptr %3, align 8
  %6 = getelementptr inbounds nuw %"class.cvc5::context::CDList", ptr %5, i32 0, i32 1
  %7 = load i64, ptr %4, align 8, !tbaa !8
  %8 = call noundef nonnull align 8 dereferenceable(16) ptr @_ZNKSt6vectorISt10shared_ptrIN4cvc58internal8decision11JustifyInfoEESaIS5_EEixEm(ptr noundef nonnull align 8 dereferenceable(24) %6, i64 noundef %7) #3
  ret ptr %8
}

; Function Attrs: mustprogress nounwind uwtable
define linkonce_odr hidden noundef nonnull align 8 dereferenceable(8) ptr @_ZNK4cvc57context3CDOImE3getEv(ptr noundef nonnull align 8 dereferenceable(48) %0) #4 comdat align 2 {
  %2 = alloca ptr, align 8
  store ptr %0, ptr %2, align 8, !tbaa !47
  %3 = load ptr, ptr %2, align 8
  %4 = getelementptr inbounds nuw %"class.cvc5::context::CDO.0", ptr %3, i32 0, i32 1
  ret ptr %4
}

; Function Attrs: mustprogress uwtable
define hidden noundef ptr @_ZN4cvc58internal8decision12JustifyStack10getCurrentEv(ptr noundef nonnull align 8 dereferenceable(184) %0) #6 align 2 {
  %2 = alloca ptr, align 8
  %3 = alloca ptr, align 8
  store ptr %0, ptr %3, align 8, !tbaa !16
  %4 = load ptr, ptr %3, align 8
  %5 = getelementptr inbounds nuw %"class.cvc5::internal::decision::JustifyStack", ptr %4, i32 0, i32 3
  %6 = call noundef nonnull align 8 dereferenceable(8) ptr @_ZNK4cvc57context3CDOImE3getEv(ptr noundef nonnull align 8 dereferenceable(48) %5)
  %7 = load i64, ptr %6, align 8, !tbaa !8
  %8 = icmp eq i64 %7, 0
  br i1 %8, label %9, label %10

9:                                                ; preds = %1
  store ptr null, ptr %2, align 8
  br label %18

10:                                               ; preds = %1
  %11 = getelementptr inbounds nuw %"class.cvc5::internal::decision::JustifyStack", ptr %4, i32 0, i32 2
  %12 = getelementptr inbounds nuw %"class.cvc5::internal::decision::JustifyStack", ptr %4, i32 0, i32 3
  %13 = call noundef nonnull align 8 dereferenceable(8) ptr @_ZNK4cvc57context3CDOImE3getEv(ptr noundef nonnull align 8 dereferenceable(48) %12)
  %14 = load i64, ptr %13, align 8, !tbaa !8
  %15 = sub i64 %14, 1
  %16 = call noundef nonnull align 8 dereferenceable(16) ptr @_ZNK4cvc57context6CDListISt10shared_ptrINS_8internal8decision11JustifyInfoEENS0_14DefaultCleanUpIS6_EESaIS6_EEixEm(ptr noundef nonnull align 8 dereferenceable(74) %11, i64 noundef %15)
  %17 = call noundef ptr @_ZNKSt12__shared_ptrIN4cvc58internal8decision11JustifyInfoELN9__gnu_cxx12_Lock_policyE2EE3getEv(ptr noundef nonnull align 8 dereferenceable(16) %16) #3
  store ptr %17, ptr %2, align 8
  br label %18

18:                                               ; preds = %10, %9
  %19 = load ptr, ptr %2, align 8
  ret ptr %19
}