; Function Attrs: mustprogress nofree norecurse nosync nounwind willreturn memory(read, inaccessiblemem: none) uwtable
define hidden noundef ptr @_ZN4cvc58internal8decision12JustifyStack10getCurrentEv(ptr noundef nonnull readonly align 8 captures(none) dereferenceable(184) %0) local_unnamed_addr #8 align 2 {
  %2 = getelementptr inbounds nuw i8, ptr %0, i64 176
  %3 = load i64, ptr %2, align 8, !tbaa !63
  %4 = icmp eq i64 %3, 0
  br i1 %4, label %11, label %5

5:                                                ; preds = %1
  %6 = getelementptr inbounds nuw i8, ptr %0, i64 96
  %7 = load ptr, ptr %6, align 8, !tbaa !49
  %8 = getelementptr %"class.std::shared_ptr", ptr %7, i64 %3
  %9 = getelementptr i8, ptr %8, i64 -16
  %10 = load ptr, ptr %9, align 8, !tbaa !67
  br label %11

11:                                               ; preds = %1, %5
  %.0 = phi ptr [ %10, %5 ], [ null, %1 ]
  ret ptr %.0
}